Certificate:
    Data:
        Version: 3 (0x2)
        Serial Number: 1 (0x1)
        Signature Algorithm: sha256WithRSAEncryption
        Issuer: C=PL, ST=pomorskie, L=Gdansk, O=PG, OU=ETI, CN=pg.edu.pl
        Validity
            Not Before: Nov 18 14:37:59 2020 GMT
            Not After : Nov 18 14:37:59 2021 GMT
        Subject: C=PL, ST=pomorskie, O=Kwiaciarniakwiatowa, CN=localhost
        Subject Public Key Info:
            Public Key Algorithm: rsaEncryption
                RSA Public-Key: (2048 bit)
                Modulus:
                    00:cb:39:73:c4:a3:0c:69:b6:8b:f0:c9:b4:03:79:
                    3f:b4:4a:1c:97:6f:d1:5e:13:f1:5e:7c:6a:c6:ad:
                    ae:5b:0c:fb:02:24:df:82:5b:8d:e0:13:78:03:45:
                    66:96:37:d0:0f:94:b2:f2:4c:15:27:a2:b1:05:c2:
                    9a:1c:63:30:32:56:a5:b4:b1:ea:e3:53:6f:25:42:
                    2c:00:71:3a:8b:c3:bf:85:c1:a1:e1:6d:3a:d6:3a:
                    c1:9c:40:32:a2:4b:97:6b:7a:83:59:eb:75:1f:7e:
                    e6:b3:fd:c9:05:02:1d:a4:fb:b9:22:03:83:ce:2b:
                    d4:42:07:7c:97:04:24:21:93:c8:7c:f1:ae:ee:9b:
                    af:cf:17:e7:20:03:81:4f:63:85:22:9e:c3:fb:79:
                    d5:f8:1c:dd:a7:a9:07:c3:d6:f8:43:a1:f3:02:bc:
                    89:a3:13:86:0d:a1:36:31:89:13:e1:ad:b3:d3:7e:
                    0a:71:a4:a8:ff:d2:fe:88:96:69:5e:b2:f9:ae:d6:
                    1d:5f:2e:f3:b1:4f:55:12:2b:0a:82:b6:fe:84:29:
                    a6:e9:76:50:8c:12:16:9f:02:5e:73:d7:28:f6:52:
                    66:cc:ba:3e:4f:7b:9b:96:8e:d8:7b:9c:22:c6:4a:
                    c6:29:25:b0:80:1e:23:26:7a:f2:96:12:34:73:3a:
                    06:1b
                Exponent: 65537 (0x10001)
        X509v3 extensions:
            X509v3 Basic Constraints: 
                CA:FALSE
            X509v3 Subject Alternative Name: 
                DNS:localhost, DNS:*.localhost, DNS:*.localhost/prestashop, DNS:localhost/prestashop, DNS:*.localhost/prestashop/pl, DNS:localhost/prestashop/pl
            X509v3 Subject Key Identifier: 
                33:1F:42:06:D0:7F:25:93:4C:4C:C8:89:8A:48:60:2D:1B:9F:AE:21
    Signature Algorithm: sha256WithRSAEncryption
         37:65:8b:4e:1e:4e:4b:90:d7:4f:e6:58:78:e5:99:a0:45:9f:
         1a:04:3e:91:17:6e:a7:11:6b:d9:1d:a3:18:f4:87:19:7f:4b:
         1c:4d:a2:c8:17:4d:75:d2:d8:36:a4:e9:66:e0:ba:9e:97:94:
         a8:4c:21:53:f3:d6:a5:28:e1:3f:5a:01:a7:5c:20:38:d7:3c:
         c7:6d:18:2e:5b:c5:3c:78:0e:4a:c5:16:c0:0d:18:d7:7f:d6:
         ca:c4:5b:0c:2f:00:73:c7:83:6e:c2:d0:f8:de:5d:16:bd:4e:
         2c:31:39:95:dd:49:41:e9:74:8a:d4:8c:d1:ed:c1:3b:c7:24:
         7b:f1:75:46:47:b0:b4:69:b3:3d:57:f4:d6:48:73:92:74:c4:
         70:2f:2f:9f:ba:e4:69:5b:78:77:69:a6:23:c2:8a:bf:9c:7d:
         e2:b5:7f:6f:bd:46:33:60:bd:8e:2c:ed:9b:4a:7b:60:1b:b8:
         2a:3a:71:39:61:d2:f0:2a:72:54:09:b9:b4:2d:79:21:04:43:
         f2:4c:c8:69:bd:ab:f7:b2:3c:02:a3:4e:c3:47:7a:f9:67:ed:
         51:11:14:f7:92:3f:96:eb:49:68:8e:95:e8:de:09:29:26:7f:
         e3:e0:77:9e:6f:af:1c:1d:4d:3d:0c:70:e9:08:c1:f5:05:a2:
         27:54:5e:7d
-----BEGIN CERTIFICATE-----
MIID4zCCAsugAwIBAgIBATANBgkqhkiG9w0BAQsFADBhMQswCQYDVQQGEwJQTDES
MBAGA1UECAwJcG9tb3Jza2llMQ8wDQYDVQQHDAZHZGFuc2sxCzAJBgNVBAoMAlBH
MQwwCgYDVQQLDANFVEkxEjAQBgNVBAMMCXBnLmVkdS5wbDAeFw0yMDExMTgxNDM3
NTlaFw0yMTExMTgxNDM3NTlaMFMxCzAJBgNVBAYTAlBMMRIwEAYDVQQIDAlwb21v
cnNraWUxHDAaBgNVBAoME0t3aWFjaWFybmlha3dpYXRvd2ExEjAQBgNVBAMMCWxv
Y2FsaG9zdDCCASIwDQYJKoZIhvcNAQEBBQADggEPADCCAQoCggEBAMs5c8SjDGm2
i/DJtAN5P7RKHJdv0V4T8V58asatrlsM+wIk34JbjeATeANFZpY30A+UsvJMFSei
sQXCmhxjMDJWpbSx6uNTbyVCLABxOovDv4XBoeFtOtY6wZxAMqJLl2t6g1nrdR9+
5rP9yQUCHaT7uSIDg84r1EIHfJcEJCGTyHzxru6br88X5yADgU9jhSKew/t51fgc
3aepB8PW+EOh8wK8iaMThg2hNjGJE+Gts9N+CnGkqP/S/oiWaV6y+a7WHV8u87FP
VRIrCoK2/oQppul2UIwSFp8CXnPXKPZSZsy6Pk97m5aO2HucIsZKxiklsIAeIyZ6
8pYSNHM6BhsCAwEAAaOBszCBsDAJBgNVHRMEAjAAMIGDBgNVHREEfDB6gglsb2Nh
bGhvc3SCCyoubG9jYWxob3N0ghYqLmxvY2FsaG9zdC9wcmVzdGFzaG9wghRsb2Nh
bGhvc3QvcHJlc3Rhc2hvcIIZKi5sb2NhbGhvc3QvcHJlc3Rhc2hvcC9wbIIXbG9j
YWxob3N0L3ByZXN0YXNob3AvcGwwHQYDVR0OBBYEFDMfQgbQfyWTTEzIiYpIYC0b
n64hMA0GCSqGSIb3DQEBCwUAA4IBAQA3ZYtOHk5LkNdP5lh45ZmgRZ8aBD6RF26n
EWvZHaMY9IcZf0scTaLIF0110tg2pOlm4Lqel5SoTCFT89alKOE/WgGnXCA41zzH
bRguW8U8eA5KxRbADRjXf9bKxFsMLwBzx4NuwtD43l0WvU4sMTmV3UlB6XSK1IzR
7cE7xyR78XVGR7C0abM9V/TWSHOSdMRwLy+fuuRpW3h3aaYjwoq/nH3itX9vvUYz
YL2OLO2bSntgG7gqOnE5YdLwKnJUCbm0LXkhBEPyTMhpvav3sjwCo07DR3r5Z+1R
ERT3kj+W60lojpXo3gkpJn/j4Heeb68cHU09DHDpCMH1BaInVF59
-----END CERTIFICATE-----
